---
triple:          'arm64-apple-darwin'
binary-path:     main
relocations:
  - { offsetInCU: 0x5C, offset: 0x5C, size: 0x8, addend: 0x0, symName: __ZNSt3__1L19piecewise_constructE, symObjAddr: 0xA152, symBinAddr: 0x10000BCA2, symSize: 0x0 }
  - { offsetInCU: 0xAC6B, offset: 0xAC6B, size: 0x8, addend: 0x0, symName: __ZNSt3__111__introsortINS_17_ClassicAlgPolicyERPFbN3TSP10individualES3_EPS3_EEvT1_S8_T0_NS_15iterator_traitsIS8_E15difference_typeE, symObjAddr: 0x4850, symBinAddr: 0x1000061A8, symSize: 0x155C }
  - { offsetInCU: 0x11985, offset: 0x11985, size: 0x8, addend: 0x0, symName: __ZNSt3__118__insertion_sort_3B7v160006INS_17_ClassicAlgPolicyERPFbN3TSP10individualES3_EPS3_EEvT1_S8_T0_, symObjAddr: 0x5DAC, symBinAddr: 0x100007704, symSize: 0x574 }
  - { offsetInCU: 0x13594, offset: 0x13594, size: 0x8, addend: 0x0, symName: __ZNSt3__111__sift_downB7v160006INS_17_ClassicAlgPolicyERPFbN3TSP10individualES3_EPS3_EEvT1_OT0_NS_15iterator_traitsIS8_E15difference_typeES8_, symObjAddr: 0x7318, symBinAddr: 0x100008C70, symSize: 0x61C }
  - { offsetInCU: 0x15943, offset: 0x15943, size: 0x8, addend: 0x0, symName: __ZNSt3__117__floyd_sift_downB7v160006INS_17_ClassicAlgPolicyERPFbN3TSP10individualES3_EPS3_EET1_S8_OT0_NS_15iterator_traitsIS8_E15difference_typeE, symObjAddr: 0x7AE4, symBinAddr: 0x10000943C, symSize: 0x224 }
  - { offsetInCU: 0x163DF, offset: 0x163DF, size: 0x8, addend: 0x0, symName: __ZNSt3__127__insertion_sort_incompleteIRPFbN3TSP10individualES2_EPS2_EEbT0_S7_T_, symObjAddr: 0x6960, symBinAddr: 0x1000082B8, symSize: 0x5B0 }
  - { offsetInCU: 0x18441, offset: 0x18441, size: 0x8, addend: 0x0, symName: __ZNSt3__124__put_character_sequenceB7v160006IcNS_11char_traitsIcEEEERNS_13basic_ostreamIT_T0_EES7_PKS4_m, symObjAddr: 0x85D0, symBinAddr: 0x100009F28, symSize: 0x164 }
  - { offsetInCU: 0x1CE35, offset: 0x1CE35, size: 0x8, addend: 0x0, symName: __ZNSt3__17getlineB7v160006IcNS_11char_traitsIcEENS_9allocatorIcEEEERNS_13basic_istreamIT_T0_EES9_RNS_12basic_stringIS6_S7_T1_EES6_, symObjAddr: 0x94F0, symBinAddr: 0x10000AE48, symSize: 0x188 }
  - { offsetInCU: 0x1DF3D, offset: 0x1DF3D, size: 0x8, addend: 0x0, symName: __ZNSt3__120__throw_length_errorB7v160006EPKc, symObjAddr: 0x3474, symBinAddr: 0x100004DCC, symSize: 0x50 }
  - { offsetInCU: 0x1E620, offset: 0x1E620, size: 0x8, addend: 0x0, symName: __ZNSt3__1ltB7v160006INS_12basic_stringIcNS_11char_traitsIcEENS_9allocatorIcEEEES6_EEbRKNS_4pairIT_T0_EESC_, symObjAddr: 0x4508, symBinAddr: 0x100005E60, symSize: 0x194 }
  - { offsetInCU: 0x1E9AE, offset: 0x1E9AE, size: 0x8, addend: 0x0, symName: __ZNSt3__127__tree_balance_after_insertB7v160006IPNS_16__tree_node_baseIPvEEEEvT_S5_, symObjAddr: 0x469C, symBinAddr: 0x100005FF4, symSize: 0x1B4 }
  - { offsetInCU: 0x1F196, offset: 0x1F196, size: 0x8, addend: 0x0, symName: __ZNSt3__17__sort5IRPFbN3TSP10individualES2_EPS2_EEjT0_S7_S7_S7_S7_T_, symObjAddr: 0x8090, symBinAddr: 0x1000099E8, symSize: 0x540 }
  - { offsetInCU: 0x21564, offset: 0x21564, size: 0x8, addend: 0x0, symName: __ZNSt3__17__sort3B7v160006INS_17_ClassicAlgPolicyERPFbN3TSP10individualES3_EPS3_EEjT1_S8_S8_T0_, symObjAddr: 0x6320, symBinAddr: 0x100007C78, symSize: 0x640 }
  - { offsetInCU: 0x23F4C, offset: 0x23F4C, size: 0x8, addend: 0x0, symName: __ZNSt3__17__sort4B7v160006INS_17_ClassicAlgPolicyERPFbN3TSP10individualES3_EPS3_EEjT1_S8_S8_S8_T0_, symObjAddr: 0x6F10, symBinAddr: 0x100008868, symSize: 0x408 }
  - { offsetInCU: 0x25A24, offset: 0x25A24, size: 0x8, addend: 0x0, symName: __ZNSt3__110__pop_heapB7v160006INS_17_ClassicAlgPolicyEPFbN3TSP10individualES3_EPS3_EEvT1_S7_RT0_NS_15iterator_traitsIS7_E15difference_typeE, symObjAddr: 0x7934, symBinAddr: 0x10000928C, symSize: 0x1B0 }
  - { offsetInCU: 0x26243, offset: 0x26243, size: 0x8, addend: 0x0, symName: __ZNSt3__19__sift_upB7v160006INS_17_ClassicAlgPolicyERPFbN3TSP10individualES3_EPS3_EEvT1_S8_OT0_NS_15iterator_traitsIS8_E15difference_typeE, symObjAddr: 0x7D08, symBinAddr: 0x100009660, symSize: 0x388 }
  - { offsetInCU: 0x27816, offset: 0x27816, size: 0x8, addend: 0x0, symName: __ZNSt3__116__pad_and_outputB7v160006IcNS_11char_traitsIcEEEENS_19ostreambuf_iteratorIT_T0_EES6_PKS4_S8_S8_RNS_8ios_baseES4_, symObjAddr: 0x8734, symBinAddr: 0x10000A08C, symSize: 0x194 }
  - { offsetInCU: 0x288EA, offset: 0x288EA, size: 0x8, addend: 0x0, symName: __ZSt28__throw_bad_array_new_lengthB7v160006v, symObjAddr: 0x34E8, symBinAddr: 0x100004E40, symSize: 0x28 }
  - { offsetInCU: 0x2994B, offset: 0x2994B, size: 0x8, addend: 0x0, symName: __ZNSt3__124uniform_int_distributionIlEclINS_23mersenne_twister_engineIjLm32ELm624ELm397ELm31ELj2567483615ELm11ELj4294967295ELm7ELj2636928640ELm15ELj4022730752ELm18ELj1812433253EEEEElRT_RKNS1_10param_typeE, symObjAddr: 0x404C, symBinAddr: 0x1000059A4, symSize: 0x188 }
  - { offsetInCU: 0x2C2AB, offset: 0x2C2AB, size: 0x8, addend: 0x0, symName: __Z11display_mapRKNSt3__13mapINS_4pairINS_12basic_stringIcNS_11char_traitsIcEENS_9allocatorIcEEEES7_EEiNS_4lessIS8_EENS5_INS1_IKS8_iEEEEEE, symObjAddr: 0x0, symBinAddr: 0x100001958, symSize: 0x198 }
  - { offsetInCU: 0x2D473, offset: 0x2D473, size: 0x8, addend: 0x0, symName: __Z18load_map_from_fileRNSt3__13mapINS_4pairINS_12basic_stringIcNS_11char_traitsIcEENS_9allocatorIcEEEES7_EEiNS_4lessIS8_EENS5_INS1_IKS8_iEEEEEERKS7_NS_6vectorIS7_NS5_IS7_EEEE, symObjAddr: 0x198, symBinAddr: 0x100001AF0, symSize: 0xD68 }
  - { offsetInCU: 0x2FC7E, offset: 0x2FC7E, size: 0x8, addend: 0x0, symName: __ZNSt3__114basic_ifstreamIcNS_11char_traitsIcEEEC1ERKNS_12basic_stringIcS2_NS_9allocatorIcEEEEj, symObjAddr: 0xF00, symBinAddr: 0x100002858, symSize: 0x118 }
  - { offsetInCU: 0x2FE00, offset: 0x2FE00, size: 0x8, addend: 0x0, symName: __ZNSt3__16vectorINS0_IiNS_9allocatorIiEEEENS1_IS3_EEEC2EmRKS3_, symObjAddr: 0x918C, symBinAddr: 0x10000AAE4, symSize: 0x2B8 }
  - { offsetInCU: 0x3039D, offset: 0x3039D, size: 0x8, addend: 0x0, symName: __ZNKSt3__16vectorIiNS_9allocatorIiEEE20__throw_length_errorB7v160006Ev, symObjAddr: 0x9178, symBinAddr: 0x10000AAD0, symSize: 0x14 }
  - { offsetInCU: 0x303C6, offset: 0x303C6, size: 0x8, addend: 0x0, symName: __ZNSt3__16vectorINS0_IiNS_9allocatorIiEEEENS1_IS3_EEEC2EmRKS3_, symObjAddr: 0x918C, symBinAddr: 0x10000AAE4, symSize: 0x2B8 }
  - { offsetInCU: 0x303D1, offset: 0x303D1, size: 0x8, addend: 0x0, symName: __ZNSt3__14pairINS_12basic_stringIcNS_11char_traitsIcEENS_9allocatorIcEEEES6_ED1Ev, symObjAddr: 0x1018, symBinAddr: 0x100002970, symSize: 0x58 }
  - { offsetInCU: 0x30621, offset: 0x30621, size: 0x8, addend: 0x0, symName: __ZNSt3__16vectorINS0_IiNS_9allocatorIiEEEENS1_IS3_EEED1B7v160006Ev, symObjAddr: 0x1070, symBinAddr: 0x1000029C8, symSize: 0x74 }
  - { offsetInCU: 0x308E2, offset: 0x308E2, size: 0x8, addend: 0x0, symName: __ZNSt3__114basic_ifstreamIcNS_11char_traitsIcEEED1Ev, symObjAddr: 0x10E4, symBinAddr: 0x100002A3C, symSize: 0x58 }
  - { offsetInCU: 0x30B91, offset: 0x30B91, size: 0x8, addend: 0x0, symName: __Z21load_cities_from_fileRNSt3__16vectorINS_12basic_stringIcNS_11char_traitsIcEENS_9allocatorIcEEEENS4_IS6_EEEERKS6_, symObjAddr: 0x113C, symBinAddr: 0x100002A94, symSize: 0x270 }
  - { offsetInCU: 0x3122D, offset: 0x3122D, size: 0x8, addend: 0x0, symName: __ZNSt3__16vectorINS_12basic_stringIcNS_11char_traitsIcEENS_9allocatorIcEEEENS4_IS6_EEE21__push_back_slow_pathIRKS6_EEvOT_, symObjAddr: 0x8F78, symBinAddr: 0x10000A8D0, symSize: 0x19C }
  - { offsetInCU: 0x31F38, offset: 0x31F38, size: 0x8, addend: 0x0, symName: _main, symObjAddr: 0x13AC, symBinAddr: 0x100002D04, symSize: 0x2E8 }
  - { offsetInCU: 0x33858, offset: 0x33858, size: 0x8, addend: 0x0, symName: __ZNSt3__16vectorINS_12basic_stringIcNS_11char_traitsIcEENS_9allocatorIcEEEENS4_IS6_EEEC2ERKS8_, symObjAddr: 0x8E58, symBinAddr: 0x10000A7B0, symSize: 0x120 }
  - { offsetInCU: 0x33B6E, offset: 0x33B6E, size: 0x8, addend: 0x0, symName: __ZN3TSPC1ERKNSt3__16vectorINS0_12basic_stringIcNS0_11char_traitsIcEENS0_9allocatorIcEEEENS5_IS7_EEEE, symObjAddr: 0x1708, symBinAddr: 0x100003060, symSize: 0xA4 }
  - { offsetInCU: 0x33D7C, offset: 0x33D7C, size: 0x8, addend: 0x0, symName: __ZN3TSP7TSPUtilERNSt3__13mapINS0_4pairINS0_12basic_stringIcNS0_11char_traitsIcEENS0_9allocatorIcEEEES8_EEiNS0_4lessIS9_EENS6_INS2_IKS9_iEEEEEE, symObjAddr: 0x17AC, symBinAddr: 0x100003104, symSize: 0x1A38 }
  - { offsetInCU: 0x3A65F, offset: 0x3A65F, size: 0x8, addend: 0x0, symName: __ZNSt3__16__treeINS_12__value_typeINS_4pairINS_12basic_stringIcNS_11char_traitsIcEENS_9allocatorIcEEEES8_EEiEENS_19__map_value_compareIS9_SA_NS_4lessIS9_EELb1EEENS6_ISA_EEE7destroyEPNS_11__tree_nodeISA_PvEE, symObjAddr: 0x9678, symBinAddr: 0x10000AFD0, symSize: 0x78 }
  - { offsetInCU: 0x3AA00, offset: 0x3AA00, size: 0x8, addend: 0x0, symName: __ZN3TSPD2Ev, symObjAddr: 0x8D58, symBinAddr: 0x10000A6B0, symSize: 0x100 }
  - { offsetInCU: 0x3B103, offset: 0x3B103, size: 0x8, addend: 0x0, symName: __ZNSt3__16vectorINS_12basic_stringIcNS_11char_traitsIcEENS_9allocatorIcEEEENS4_IS6_EEED1B7v160006Ev, symObjAddr: 0x1694, symBinAddr: 0x100002FEC, symSize: 0x74 }
  - { offsetInCU: 0x3B45D, offset: 0x3B45D, size: 0x8, addend: 0x0, symName: __ZNSt3__16vectorIN3TSP10individualENS_9allocatorIS2_EEE8__appendEm, symObjAddr: 0x32A4, symBinAddr: 0x100004BFC, symSize: 0x1BC }
  - { offsetInCU: 0x3BD1E, offset: 0x3BD1E, size: 0x8, addend: 0x0, symName: __ZNKSt3__16vectorIN3TSP10individualENS_9allocatorIS2_EEE20__throw_length_errorB7v160006Ev, symObjAddr: 0x3460, symBinAddr: 0x100004DB8, symSize: 0x14 }
  - { offsetInCU: 0x3BD29, offset: 0x3BD29, size: 0x8, addend: 0x0, symName: __ZNSt3__16vectorINS_12basic_stringIcNS_11char_traitsIcEENS_9allocatorIcEEEENS4_IS6_EEE6assignIPS6_Li0EEEvT_SB_, symObjAddr: 0x3584, symBinAddr: 0x100004EDC, symSize: 0x28C }
  - { offsetInCU: 0x3CA2F, offset: 0x3CA2F, size: 0x8, addend: 0x0, symName: __ZN3TSPC1ERKNSt3__16vectorINS0_12basic_stringIcNS0_11char_traitsIcEENS0_9allocatorIcEEEENS5_IS7_EEEE.cold.2, symObjAddr: 0x9760, symBinAddr: 0x10000B0E4, symSize: 0x94 }
  - { offsetInCU: 0x3CDC6, offset: 0x3CDC6, size: 0x8, addend: 0x0, symName: __ZN3TSPC1ERKNSt3__16vectorINS0_12basic_stringIcNS0_11char_traitsIcEENS0_9allocatorIcEEEENS5_IS7_EEEE.cold.1, symObjAddr: 0x96F0, symBinAddr: 0x10000B074, symSize: 0x70 }
  - { offsetInCU: 0x3DE70, offset: 0x3DE70, size: 0x8, addend: 0x0, symName: __ZN3TSP13create_genomeEv, symObjAddr: 0x388C, symBinAddr: 0x1000051E4, symSize: 0x190 }
  - { offsetInCU: 0x3E725, offset: 0x3E725, size: 0x8, addend: 0x0, symName: __ZN3TSP11cal_fitnessENSt3__16vectorINS0_12basic_stringIcNS0_11char_traitsIcEENS0_9allocatorIcEEEENS5_IS7_EEEERNS0_3mapINS0_4pairIS7_S7_EEiNS0_4lessISC_EENS5_INSB_IKSC_iEEEEEE, symObjAddr: 0x3A1C, symBinAddr: 0x100005374, symSize: 0x164 }
  - { offsetInCU: 0x3EBF8, offset: 0x3EBF8, size: 0x8, addend: 0x0, symName: __ZN3TSP20tournament_selectionEi, symObjAddr: 0x3C2C, symBinAddr: 0x100005584, symSize: 0x420 }
  - { offsetInCU: 0x3F512, offset: 0x3F512, size: 0x8, addend: 0x0, symName: __ZNSt3__16vectorINS_12basic_stringIcNS_11char_traitsIcEENS_9allocatorIcEEEENS4_IS6_EEEC2INS_11__wrap_iterIPS6_EELi0EEET_SD_, symObjAddr: 0x88DC, symBinAddr: 0x10000A234, symSize: 0x11C }
  - { offsetInCU: 0x3F8BB, offset: 0x3F8BB, size: 0x8, addend: 0x0, symName: __ZNSt3__16vectorIN3TSP10individualENS_9allocatorIS2_EEE6assignIPS2_Li0EEEvT_S8_, symObjAddr: 0x8A90, symBinAddr: 0x10000A3E8, symSize: 0x2C8 }
  - { offsetInCU: 0x40887, offset: 0x40887, size: 0x8, addend: 0x0, symName: __ZNKSt3__16vectorINS_12basic_stringIcNS_11char_traitsIcEENS_9allocatorIcEEEENS4_IS6_EEE20__throw_length_errorB7v160006Ev, symObjAddr: 0x3878, symBinAddr: 0x1000051D0, symSize: 0x14 }
  - { offsetInCU: 0x408B0, offset: 0x408B0, size: 0x8, addend: 0x0, symName: __ZN3TSP13create_genomeEv, symObjAddr: 0x388C, symBinAddr: 0x1000051E4, symSize: 0x190 }
  - { offsetInCU: 0x408BB, offset: 0x408BB, size: 0x8, addend: 0x0, symName: __ZNSt3__114__split_bufferINS_12basic_stringIcNS_11char_traitsIcEENS_9allocatorIcEEEERNS4_IS6_EEED1Ev, symObjAddr: 0x9114, symBinAddr: 0x10000AA6C, symSize: 0x64 }
  - { offsetInCU: 0x40B12, offset: 0x40B12, size: 0x8, addend: 0x0, symName: __ZNSt3__128__exception_guard_exceptionsINS_29_AllocatorDestroyRangeReverseINS_9allocatorINS_12basic_stringIcNS_11char_traitsIcEENS2_IcEEEEEEPS7_EEED1B7v160006Ev, symObjAddr: 0x3810, symBinAddr: 0x100005168, symSize: 0x68 }
  - { offsetInCU: 0x40D39, offset: 0x40D39, size: 0x8, addend: 0x0, symName: __ZNSt3__128__exception_guard_exceptionsINS_6vectorINS_12basic_stringIcNS_11char_traitsIcEENS_9allocatorIcEEEENS5_IS7_EEE16__destroy_vectorEED1B7v160006Ev, symObjAddr: 0x89F8, symBinAddr: 0x10000A350, symSize: 0x98 }
  - { offsetInCU: 0x40FED, offset: 0x40FED, size: 0x8, addend: 0x0, symName: __ZN3TSP10individualD1Ev, symObjAddr: 0x3510, symBinAddr: 0x100004E68, symSize: 0x74 }
  - { offsetInCU: 0x412D1, offset: 0x412D1, size: 0x8, addend: 0x0, symName: __ZNSt3__16vectorIN3TSP10individualENS_9allocatorIS2_EEED1B7v160006Ev, symObjAddr: 0x31E4, symBinAddr: 0x100004B3C, symSize: 0xB4 }
  - { offsetInCU: 0x41A2C, offset: 0x41A2C, size: 0x8, addend: 0x0, symName: __ZNKSt3__16vectorIN3TSP10individualENS_9allocatorIS2_EEE20__throw_length_errorB7v160006Ev, symObjAddr: 0x3460, symBinAddr: 0x100004DB8, symSize: 0x14 }
  - { offsetInCU: 0x41A55, offset: 0x41A55, size: 0x8, addend: 0x0, symName: __ZNSt3__120__throw_length_errorB7v160006EPKc, symObjAddr: 0x3474, symBinAddr: 0x100004DCC, symSize: 0x50 }
  - { offsetInCU: 0x41A60, offset: 0x41A60, size: 0x8, addend: 0x0, symName: __ZNSt12length_errorC1B7v160006EPKc, symObjAddr: 0x34C4, symBinAddr: 0x100004E1C, symSize: 0x24 }
  - { offsetInCU: 0x41E21, offset: 0x41E21, size: 0x8, addend: 0x0, symName: __ZNSt3__16__treeINS_12__value_typeINS_4pairINS_12basic_stringIcNS_11char_traitsIcEENS_9allocatorIcEEEES8_EEiEENS_19__map_value_compareIS9_SA_NS_4lessIS9_EELb1EEENS6_ISA_EEE25__emplace_unique_key_argsIS9_JRKNS_21piecewise_construct_tENS_5tupleIJRKS9_EEENSL_IJEEEEEENS2_INS_15__tree_iteratorISA_PNS_11__tree_nodeISA_PvEElEEbEERKT_DpOT0_, symObjAddr: 0x43BC, symBinAddr: 0x100005D14, symSize: 0x14C }
  - { offsetInCU: 0x423CD, offset: 0x423CD, size: 0x8, addend: 0x0, symName: __ZN3TSP8lessthanENS_10individualES0_, symObjAddr: 0x3B80, symBinAddr: 0x1000054D8, symSize: 0x14 }
  - { offsetInCU: 0x4243A, offset: 0x4243A, size: 0x8, addend: 0x0, symName: __ZNSt3__16vectorIN3TSP10individualENS_9allocatorIS2_EEEC1Em, symObjAddr: 0x3B94, symBinAddr: 0x1000054EC, symSize: 0x98 }
  - { offsetInCU: 0x426B8, offset: 0x426B8, size: 0x8, addend: 0x0, symName: __ZNSt3__16vectorIN3TSP10individualENS_9allocatorIS2_EEEC1Em.cold.1, symObjAddr: 0x97F4, symBinAddr: 0x10000B178, symSize: 0x94 }
  - { offsetInCU: 0x42B03, offset: 0x42B03, size: 0x8, addend: 0x0, symName: __ZNSt3__125__independent_bits_engineINS_23mersenne_twister_engineIjLm32ELm624ELm397ELm31ELj2567483615ELm11ELj4294967295ELm7ELj2636928640ELm15ELj4022730752ELm18ELj1812433253EEEmE6__evalENS_17integral_constantIbLb1EEE, symObjAddr: 0x41D4, symBinAddr: 0x100005B2C, symSize: 0x1E8 }
  - { offsetInCU: 0x430D9, offset: 0x430D9, size: 0x8, addend: 0x0, symName: __ZNKSt3__112basic_stringIcNS_11char_traitsIcEENS_9allocatorIcEEE20__throw_length_errorB7v160006Ev, symObjAddr: 0x88C8, symBinAddr: 0x10000A220, symSize: 0x14 }
  - { offsetInCU: 0x43102, offset: 0x43102, size: 0x8, addend: 0x0, symName: __ZNSt3__16vectorINS_12basic_stringIcNS_11char_traitsIcEENS_9allocatorIcEEEENS4_IS6_EEEC2INS_11__wrap_iterIPS6_EELi0EEET_SD_, symObjAddr: 0x88DC, symBinAddr: 0x10000A234, symSize: 0x11C }
  - { offsetInCU: 0x43316, offset: 0x43316, size: 0x8, addend: 0x0, symName: __ZNSt3__16vectorIN3TSP10individualENS_9allocatorIS2_EEE6assignIPS2_Li0EEEvT_S8_.cold.2, symObjAddr: 0x98FC, symBinAddr: 0x10000B280, symSize: 0x74 }
  - { offsetInCU: 0x43613, offset: 0x43613, size: 0x8, addend: 0x0, symName: __ZNSt3__16vectorIN3TSP10individualENS_9allocatorIS2_EEE6assignIPS2_Li0EEEvT_S8_.cold.1, symObjAddr: 0x9888, symBinAddr: 0x10000B20C, symSize: 0x74 }
  - { offsetInCU: 0x43C61, offset: 0x43C61, size: 0x8, addend: 0x0, symName: __ZNKSt3__16vectorINS0_IiNS_9allocatorIiEEEENS1_IS3_EEE20__throw_length_errorB7v160006Ev, symObjAddr: 0x94DC, symBinAddr: 0x10000AE34, symSize: 0x14 }
  - { offsetInCU: 0x43C8A, offset: 0x43C8A, size: 0x8, addend: 0x0, symName: __ZNSt3__17getlineB7v160006IcNS_11char_traitsIcEENS_9allocatorIcEEEERNS_13basic_istreamIT_T0_EES9_RNS_12basic_stringIS6_S7_T1_EES6_, symObjAddr: 0x94F0, symBinAddr: 0x10000AE48, symSize: 0x188 }
  - { offsetInCU: 0x43C95, offset: 0x43C95, size: 0x8, addend: 0x0, symName: __ZNSt3__128__exception_guard_exceptionsINS_6vectorINS1_IiNS_9allocatorIiEEEENS2_IS4_EEE16__destroy_vectorEED1B7v160006Ev, symObjAddr: 0x9444, symBinAddr: 0x10000AD9C, symSize: 0x98 }
  - { offsetInCU: 0x44097, offset: 0x44097, size: 0x8, addend: 0x0, symName: _OUTLINED_FUNCTION_0, symObjAddr: 0x9970, symBinAddr: 0x10000B048, symSize: 0x14 }
  - { offsetInCU: 0x440AF, offset: 0x440AF, size: 0x8, addend: 0x0, symName: _OUTLINED_FUNCTION_1, symObjAddr: 0x9984, symBinAddr: 0x10000B05C, symSize: 0x8 }
  - { offsetInCU: 0x440C7, offset: 0x440C7, size: 0x8, addend: 0x0, symName: _OUTLINED_FUNCTION_2, symObjAddr: 0x998C, symBinAddr: 0x10000B064, symSize: 0x10 }
...
